; Function Attrs: nounwind uwtable
define ptr @l_Lean_Widget_instRpcEncodableInteractiveGoals_enc____x40_Lean_Widget_InteractiveGoal___hyg_3339_(ptr noundef %0, ptr noundef %1) #1 {
  %3 = getelementptr i8, ptr %0, i64 8
  %.val26 = load i64, ptr %3, align 8, !tbaa !12
  %4 = tail call ptr @l_Array_mapMUnsafe_map___at_Lean_Widget_instRpcEncodableInteractiveGoals_enc____x40_Lean_Widget_InteractiveGoal___hyg_3339____spec__1(i64 noundef %.val26, i64 noundef 0, ptr noundef %0, ptr noundef %1)
  %.val = load i32, ptr %4, align 4, !tbaa !8
  %5 = icmp eq i32 %.val, 1
  %6 = getelementptr inbounds nuw i8, ptr %4, i64 8
  %7 = load ptr, ptr %6, align 8, !tbaa !4
  br i1 %5, label %8, label %11

8:                                                ; preds = %2
  %9 = tail call ptr @l_Array_toJson___at___private_Lean_Data_Lsp_Basic_0__Lean_Lsp_toJsonCommand____x40_Lean_Data_Lsp_Basic___hyg_1558____spec__2(ptr noundef %7) #6
  %10 = tail call ptr @l___private_Lean_Widget_InteractiveGoal_0__Lean_Widget_toJsonRpcEncodablePacket____x40_Lean_Widget_InteractiveGoal___hyg_3450_(ptr noundef %9)
  store ptr %10, ptr %6, align 8, !tbaa !4
  br label %46

11:                                               ; preds = %2
  %12 = getelementptr inbounds nuw i8, ptr %4, i64 16
  %13 = load ptr, ptr %12, align 8, !tbaa !4
  %14 = ptrtoint ptr %13 to i64
  %15 = and i64 %14, 1
  %.not = icmp eq i64 %15, 0
  br i1 %.not, label %16, label %lean_inc.exit25

16:                                               ; preds = %11
  %.val.i = load i32, ptr %13, align 4, !tbaa !8
  %17 = icmp sgt i32 %.val.i, 0
  br i1 %17, label %18, label %20, !prof !11

18:                                               ; preds = %16
  %19 = add nuw i32 %.val.i, 1
  store i32 %19, ptr %13, align 4, !tbaa !8
  br label %lean_inc.exit25

20:                                               ; preds = %16
  %.not.i27 = icmp eq i32 %.val.i, 0
  br i1 %.not.i27, label %lean_inc.exit25, label %21

21:                                               ; preds = %20
  tail call void @lean_inc_ref_cold(ptr noundef nonnull %13) #6
  br label %lean_inc.exit25

lean_inc.exit25:                                  ; preds = %21, %20, %18, %11
  %22 = ptrtoint ptr %7 to i64
  %23 = and i64 %22, 1
  %.not31 = icmp eq i64 %23, 0
  br i1 %.not31, label %24, label %lean_inc.exit

24:                                               ; preds = %lean_inc.exit25
  %.val.i28 = load i32, ptr %7, align 4, !tbaa !8
  %25 = icmp sgt i32 %.val.i28, 0
  br i1 %25, label %26, label %28, !prof !11

26:                                               ; preds = %24
  %27 = add nuw i32 %.val.i28, 1
  store i32 %27, ptr %7, align 4, !tbaa !8
  br label %lean_inc.exit

28:                                               ; preds = %24
  %.not.i29 = icmp eq i32 %.val.i28, 0
  br i1 %.not.i29, label %lean_inc.exit, label %29

29:                                               ; preds = %28
  tail call void @lean_inc_ref_cold(ptr noundef nonnull %7) #6
  br label %lean_inc.exit

lean_inc.exit:                                    ; preds = %29, %28, %26, %lean_inc.exit25
  %30 = ptrtoint ptr %4 to i64
  %31 = and i64 %30, 1
  %.not32 = icmp eq i64 %31, 0
  br i1 %.not32, label %32, label %lean_dec.exit

32:                                               ; preds = %lean_inc.exit
  %33 = icmp sgt i32 %.val, 1
  br i1 %33, label %34, label %36, !prof !11

34:                                               ; preds = %32
  %35 = add nsw i32 %.val, -1
  store i32 %35, ptr %4, align 4, !tbaa !8
  br label %lean_dec.exit

36:                                               ; preds = %32
  %.not.i = icmp eq i32 %.val, 0
  br i1 %.not.i, label %lean_dec.exit, label %37

37:                                               ; preds = %36
  tail call void @lean_dec_ref_cold(ptr noundef nonnull %4) #6
  br label %lean_dec.exit

lean_dec.exit:                                    ; preds = %37, %36, %34, %lean_inc.exit
  %38 = tail call ptr @l_Array_toJson___at___private_Lean_Data_Lsp_Basic_0__Lean_Lsp_toJsonCommand____x40_Lean_Data_Lsp_Basic___hyg_1558____spec__2(ptr noundef %7) #6
  %39 = tail call ptr @l___private_Lean_Widget_InteractiveGoal_0__Lean_Widget_toJsonRpcEncodablePacket____x40_Lean_Widget_InteractiveGoal___hyg_3450_(ptr noundef %38)
  tail call void @lean_inc_heartbeat() #6
  %40 = tail call noalias ptr @mi_malloc_small(i64 noundef 24) #6
  %41 = icmp eq ptr %40, null
  br i1 %41, label %42, label %lean_alloc_ctor.exit

42:                                               ; preds = %lean_dec.exit
  tail call void @lean_internal_panic_out_of_memory() #7
  unreachable

lean_alloc_ctor.exit:                             ; preds = %lean_dec.exit
  %43 = getelementptr inbounds nuw i8, ptr %40, i64 4
  store i32 1, ptr %40, align 4, !tbaa !8
  store i32 131096, ptr %43, align 4
  %44 = getelementptr inbounds nuw i8, ptr %40, i64 8
  store ptr %39, ptr %44, align 8, !tbaa !4
  %45 = getelementptr inbounds nuw i8, ptr %40, i64 16
  store ptr %13, ptr %45, align 8, !tbaa !4
  br label %46

46:                                               ; preds = %lean_alloc_ctor.exit, %8
  %.0 = phi ptr [ %4, %8 ], [ %40, %lean_alloc_ctor.exit ]
  ret ptr %.0
}